(dp0
S'rd'
p1
(lp2
V1fichier.com
p3
aValterupload.com
p4
aVcjoint.net
p5
aVdesfichiers.com
p6
aVdfichiers.com
p7
aVmegadl.fr
p8
aVmesfichiers.org
p9
aVpiecejointe.net
p10
aVpjointe.com
p11
aVtenvoi.com
p12
aVdl4free.com
p13
aV24uploading.com
p14
aV2shared.com
p15
aV4shared.com
p16
aValfafile.net
p17
aVallmyvideos.net
p18
aVanafile.com
p19
aVcanalplus.fr
p20
aVcatshare.net
p21
aVcbs.com
p22
aVclicknupload.me
p23
aVclicknupload.com
p24
aVcloudtime.to
p25
aVdivxstage.eu
p26
aVdivxstage.to
p27
aVdailymotion.com
p28
aVdatafile.com
p29
aVdatafilehost.com
p30
aVdatei.to
p31
aVdepfile.com
p32
aVi-filez.com
p33
aVdl.free.fr
p34
aVeasybytez.com
p35
aVexashare.com
p36
aVextmatrix.com
p37
aVfaststore.org
p38
aVfilecloud.io
p39
aVfilefactory.com
p40
aVfileflyer.com
p41
aVfileover.net
p42
aVfilerio.com
p43
aVfilerio.in
p44
aVfilesflash.com
p45
aVfilesflash.net
p46
aVfilesmonster.com
p47
aVgigapeta.com
p48
aVgigasize.com
p49
aVgboxes.com
p50
aVgulfup.com
p51
aVhugefiles.net
p52
aVhulkshare.com
p53
aVkeep2share.cc
p54
aVk2s.cc
p55
aVkeep2s.cc
p56
aVk2share.cc
p57
aVkingfiles.net
p58
aVletitbit.net
p59
aVload.to
p60
aVluckyshare.net
p61
aVmediafire.com
p62
aVmega.co.nz
p63
aVmega.nz
p64
aVmegashares.com
p65
aVmightyupload.com
p66
aVmovshare.net
p67
aVwholecloud.net
p68
aVnitroflare.com
p69
aVnovamov.com
p70
aVauroravid.to
p71
aVnowdownload.eu
p72
aVnowdownload.ch
p73
aVnowdownload.sx
p74
aVnowdownload.ag
p75
aVnowdownload.at
p76
aVnowdownload.ec
p77
aVnowdownload.li
p78
aVnowdownload.to
p79
aVnowvideo.eu
p80
aVnowvideo.ch
p81
aVnowvideo.sx
p82
aVnowvideo.ag
p83
aVnowvideo.at
p84
aVnowvideo.li
p85
aVoboom.com
p86
aVopenload.co
p87
aVopenload.io
p88
aVozofiles.com
p89
aVpurevid.com
p90
aVsky.fm
p91
aVradiotunes.com
p92
aVrapidgator.net
p93
aVrg.to
p94
aVrarefile.net
p95
aVredbunker.net
p96
aVredtube.com
p97
aVrockfile.eu
p98
aVrutube.ru
p99
aVsalefiles.com
p100
aVscribd.com
p101
aVsecureupload.eu
p102
aVsendspace.com
p103
aVshare-online.biz
p104
aVshareflare.net
p105
aVsoundcloud.com
p106
aVspeedyshare.com
p107
aVthevideo.me
p108
aVturbobit.net
p109
aVtusfiles.net
p110
aVulozto.net
p111
aVuloz.to
p112
aVulozto.sk
p113
aVunibytes.com
p114
aVuplea.com
p115
aVupload.af
p116
aVuploadable.ch
p117
aVbigfile.to
p118
aVuploadc.com
p119
aVuploadc.ch
p120
aVuploaded.net
p121
aVuploaded.to
p122
aVul.to
p123
aVuploading.com
p124
aVuploadrocket.net
p125
aVuploadx.org
p126
aVupstore.net
p127
aVuptobox.com
p128
aVuptostream.com
p129
aVuserporn.com
p130
aVuserscloud.com
p131
aVveevr.com
p132
aVvideoweed.es
p133
aVbitvid.sx
p134
aVvimeo.com
p135
aVvip-file.com
p136
aVvipfile.in
p137
aVyouporn.com
p138
aVyoutube.com
p139
aVyouwatch.org
p140
aVyunfile.com
p141
aVfilemarkets.com
p142
aV5xpan.com
p143
aVdix3.com
p144
aVzippyshare.com
p145
asS'rp'
p146
(lp147
V1fichier.com
p148
aV24uploading.com
p149
aVakafile.com
p150
aVanafile.com
p151
aVcloudtime.to
p152
aVdailyuploads.net
p153
aVdatafile.com
p154
aVdepfile.com
p155
aVdivxstage.to
p156
aVezfile.ch
p157
aVfilecloud.io
p158
aVfiledais.com
p159
aVfilepup.net
p160
aVfilerio.in
p161
aVfilesabc.com
p162
aVfilesflash.com
p163
aVfilespace.com
p164
aVfiletut.com
p165
aVfiredrop.com
p166
aVhugefiles.net
p167
aVifile.it
p168
aVinclouddrive.com
p169
aVjunocloud.me
p170
aVletitbit.net
p171
aVlivefile.co.uk
p172
aVmegashares.com
p173
aVmovshare.net
p174
aVnitroflare.com
p175
aVnornar.com
p176
aVnovamov.com
p177
aVnowvideo.sx
p178
aVoboom.com
p179
aVprefiles.com
p180
aVputlocker.ws
p181
aVrapidfileshare.net
p182
aVrapidgator.net
p183
aVrapidrar.com
p184
aVrg.to
p185
aVsafelinking.net
p186
aVsalefiles.com
p187
aVsecureupload.eu
p188
aVshare-online.biz
p189
aVshareflare.net
p190
aVspeedy.sh
p191
aVspeedyshare.com
p192
aVturbobit.net
p193
aVtusfiles.net
p194
aVul.to
p195
aVunlimitzone.com
p196
aVuploadable.ch
p197
aVuploaded.net
p198
aVuploaded.to
p199
aVuploading.com
p200
aVuploadrocket.net
p201
aVuptobox.com
p202
aVuserscloud.com
p203
aVvideoweed.es
p204
asS'ad'
p205
(lp206
V180upload.com
p207
aV24uploading.com
p208
aV1fichier.com
p209
aV1st-files.com
p210
aV2shared.com
p211
aV4shared.com
p212
aValbafile.com
p213
aVasfile.com
p214
aVbitshare.com
p215
aVcrocko.com
p216
aVdatafile.com
p217
aVdatei.to
p218
aVdepfile.com
p219
aVdizzcloud.com
p220
aVeasybytez.com
p221
aVexoshare.com
p222
aVextmatrix.com
p223
aVfaststore.org
p224
aVfile4safe.com
p225
aVfilebox.com
p226
aVfilecloud.org
p227
aVfileden.com
p228
aVfileflyer.com
p229
aVfilemade.com
p230
aVfilemonkey.com
p231
aVfileover.net
p232
aVfilepost.com
p233
aVfilerio.in
p234
aVfilesabc.com
p235
aVfilesave.me
p236
aVfilesend.com
p237
aVfilesflash.com
p238
aVfilesflash.net
p239
aVfilesmonster.net
p240
aVfileswap.com
p241
aVfiredrive.com
p242
aVfreakshare.com
p243
aVfreakshare.net
p244
aVfree.fr
p245
aVgigapeta.com
p246
aVgigasize.com
p247
aVgulfup.com
p248
aVhostingbulk.com
p249
aVhulkshare.com
p250
aVjumbofiles.com
p251
aVkingfiles.net
p252
aVletitbit.net
p253
aVload.to
p254
aVluckyshare.net
p255
aVmediafire.com
p256
aVmega.co.nz
p257
aVmegashares.com
p258
aVmixturevideo.com
p259
aVmuchshare.net
p260
aVnetload.in
p261
aVnowdownload.eu
p262
aVprefiles.com
p263
aVpurevid.com
p264
aVrapidgator.net
p265
aVrg.to
p266
aVrapidshare.com
p267
aVscribd.com
p268
aVsendspace.com
p269
aVsharebeast.com
p270
aVsharebees.com
p271
aVshareflare.net
p272
aVshare-online.biz
p273
aVshare-rapid.com
p274
aVsockshare.com
p275
aVsoundcloud.com
p276
aVspeedyshare.com
p277
aVturbobit.net
p278
aVuload.to
p279
aVunibytes.com
p280
aVuplea.com
p281
aVuploadbox.com
p282
aVuploadc.com
p283
aVuploaded.to
p284
aVuploaded.net
p285
aVul.to
p286
aVuploadable.ch
p287
aVuploadhero.co
p288
aVuploading.com
p289
aVuploadking.com
p290
aVuploadspace.pl
p291
aVuptobox.com
p292
aVuserporn.com
p293
aVvidbux.com
p294
aVvidxden.com
p295
aVvip-file.com
p296
aVyoutube.com
p297
aVyunfile.com
p298
aVzippyshare.com
p299
aVzshare.net
p300
asS'pm'
p301
(lp302
s.